target datalayout = "e-m:e-p270:32:32-p271:32:32-p272:64:64-i64:64-i128:128-f80:128-n8:16:32:64-S128"
target triple = "x86_64-pc-linux-gnu"

%struct.u_printf_spec_info = type { i32, i32, i16, i16, i16, i8, i8, i8, i8, i8, i8, i8, i8, i8 }

; Function Attrs: mustprogress uwtable
define internal noundef i32 @_ZL24u_printf_pad_and_justifyPvPK18u_printf_spec_infoPKDsi(ptr noundef %0, ptr noundef %1, ptr noundef %2, i32 noundef %3) #0 {
  %5 = alloca ptr, align 8
  %6 = alloca ptr, align 8
  %7 = alloca ptr, align 8
  %8 = alloca i32, align 4
  %9 = alloca ptr, align 8
  %10 = alloca i32, align 4
  %11 = alloca i32, align 4
  store ptr %0, ptr %5, align 8, !tbaa !10
  store ptr %1, ptr %6, align 8, !tbaa !31
  store ptr %2, ptr %7, align 8, !tbaa !21
  store i32 %3, ptr %8, align 4, !tbaa !15
  call void @llvm.lifetime.start.p0(i64 8, ptr %9) #11
  %12 = load ptr, ptr %5, align 8, !tbaa !10
  store ptr %12, ptr %9, align 8, !tbaa !3
  call void @llvm.lifetime.start.p0(i64 4, ptr %10) #11
  call void @llvm.lifetime.start.p0(i64 4, ptr %11) #11
  %13 = load ptr, ptr %6, align 8, !tbaa !31
  %14 = getelementptr inbounds nuw %struct.u_printf_spec_info, ptr %13, i32 0, i32 1
  %15 = load i32, ptr %14, align 4, !tbaa !33
  %16 = icmp ne i32 %15, -1
  br i1 %16, label %17, label %79

17:                                               ; preds = %4
  %18 = load i32, ptr %8, align 4, !tbaa !15
  %19 = load ptr, ptr %6, align 8, !tbaa !31
  %20 = getelementptr inbounds nuw %struct.u_printf_spec_info, ptr %19, i32 0, i32 1
  %21 = load i32, ptr %20, align 4, !tbaa !33
  %22 = icmp slt i32 %18, %21
  br i1 %22, label %23, label %79

23:                                               ; preds = %17
  %24 = load ptr, ptr %6, align 8, !tbaa !31
  %25 = getelementptr inbounds nuw %struct.u_printf_spec_info, ptr %24, i32 0, i32 7
  %26 = load i8, ptr %25, align 4, !tbaa !36
  %27 = icmp ne i8 %26, 0
  br i1 %27, label %28, label %52

28:                                               ; preds = %23
  %29 = load ptr, ptr %7, align 8, !tbaa !21
  %30 = load i32, ptr %8, align 4, !tbaa !15
  %31 = load ptr, ptr %9, align 8, !tbaa !3
  %32 = call i32 @u_file_write_77(ptr noundef %29, i32 noundef %30, ptr noundef %31)
  store i32 %32, ptr %10, align 4, !tbaa !15
  store i32 0, ptr %11, align 4, !tbaa !15
  br label %33

33:                                               ; preds = %48, %28
  %34 = load i32, ptr %11, align 4, !tbaa !15
  %35 = load ptr, ptr %6, align 8, !tbaa !31
  %36 = getelementptr inbounds nuw %struct.u_printf_spec_info, ptr %35, i32 0, i32 1
  %37 = load i32, ptr %36, align 4, !tbaa !33
  %38 = load i32, ptr %8, align 4, !tbaa !15
  %39 = sub nsw i32 %37, %38
  %40 = icmp slt i32 %34, %39
  br i1 %40, label %41, label %51

41:                                               ; preds = %33
  %42 = load ptr, ptr %6, align 8, !tbaa !31
  %43 = getelementptr inbounds nuw %struct.u_printf_spec_info, ptr %42, i32 0, i32 4
  %44 = load ptr, ptr %9, align 8, !tbaa !3
  %45 = call i32 @u_file_write_77(ptr noundef %43, i32 noundef 1, ptr noundef %44)
  %46 = load i32, ptr %10, align 4, !tbaa !15
  %47 = add nsw i32 %46, %45
  store i32 %47, ptr %10, align 4, !tbaa !15
  br label %48

48:                                               ; preds = %41
  %49 = load i32, ptr %11, align 4, !tbaa !15
  %50 = add nsw i32 %49, 1
  store i32 %50, ptr %11, align 4, !tbaa !15
  br label %33, !llvm.loop !37

51:                                               ; preds = %33
  br label %78

52:                                               ; preds = %23
  store i32 0, ptr %10, align 4, !tbaa !15
  store i32 0, ptr %11, align 4, !tbaa !15
  br label %53

53:                                               ; preds = %68, %52
  %54 = load i32, ptr %11, align 4, !tbaa !15
  %55 = load ptr, ptr %6, align 8, !tbaa !31
  %56 = getelementptr inbounds nuw %struct.u_printf_spec_info, ptr %55, i32 0, i32 1
  %57 = load i32, ptr %56, align 4, !tbaa !33
  %58 = load i32, ptr %8, align 4, !tbaa !15
  %59 = sub nsw i32 %57, %58
  %60 = icmp slt i32 %54, %59
  br i1 %60, label %61, label %71

61:                                               ; preds = %53
  %62 = load ptr, ptr %6, align 8, !tbaa !31
  %63 = getelementptr inbounds nuw %struct.u_printf_spec_info, ptr %62, i32 0, i32 4
  %64 = load ptr, ptr %9, align 8, !tbaa !3
  %65 = call i32 @u_file_write_77(ptr noundef %63, i32 noundef 1, ptr noundef %64)
  %66 = load i32, ptr %10, align 4, !tbaa !15
  %67 = add nsw i32 %66, %65
  store i32 %67, ptr %10, align 4, !tbaa !15
  br label %68

68:                                               ; preds = %61
  %69 = load i32, ptr %11, align 4, !tbaa !15
  %70 = add nsw i32 %69, 1
  store i32 %70, ptr %11, align 4, !tbaa !15
  br label %53, !llvm.loop !39

71:                                               ; preds = %53
  %72 = load ptr, ptr %7, align 8, !tbaa !21
  %73 = load i32, ptr %8, align 4, !tbaa !15
  %74 = load ptr, ptr %9, align 8, !tbaa !3
  %75 = call i32 @u_file_write_77(ptr noundef %72, i32 noundef %73, ptr noundef %74)
  %76 = load i32, ptr %10, align 4, !tbaa !15
  %77 = add nsw i32 %76, %75
  store i32 %77, ptr %10, align 4, !tbaa !15
  br label %78

78:                                               ; preds = %71, %51
  br label %84

79:                                               ; preds = %17, %4
  %80 = load ptr, ptr %7, align 8, !tbaa !21
  %81 = load i32, ptr %8, align 4, !tbaa !15
  %82 = load ptr, ptr %9, align 8, !tbaa !3
  %83 = call i32 @u_file_write_77(ptr noundef %80, i32 noundef %81, ptr noundef %82)
  store i32 %83, ptr %10, align 4, !tbaa !15
  br label %84

84:                                               ; preds = %79, %78
  %85 = load i32, ptr %10, align 4, !tbaa !15
  call void @llvm.lifetime.end.p0(i64 4, ptr %11) #11
  call void @llvm.lifetime.end.p0(i64 4, ptr %10) #11
  call void @llvm.lifetime.end.p0(i64 8, ptr %9) #11
  ret i32 %85
}