; Function Attrs: mustprogress uwtable
define internal noundef i32 @_ZL24u_printf_pad_and_justifyPvPK18u_printf_spec_infoPKDsi(ptr noundef %0, ptr noundef %1, ptr noundef %2, i32 noundef %3) #0 {
  %5 = getelementptr inbounds nuw i8, ptr %1, i64 4
  %6 = load i32, ptr %5, align 4, !tbaa !12
  %.not = icmp ne i32 %6, -1
  %7 = icmp slt i32 %3, %6
  %or.cond = and i1 %.not, %7
  br i1 %or.cond, label %8, label %33

8:                                                ; preds = %4
  %9 = getelementptr inbounds nuw i8, ptr %1, i64 16
  %10 = load i8, ptr %9, align 4, !tbaa !15
  %.not33 = icmp eq i8 %10, 0
  br i1 %.not33, label %.lr.ph38, label %12

.lr.ph38:                                         ; preds = %8
  %11 = getelementptr inbounds nuw i8, ptr %1, i64 12
  br label %24

12:                                               ; preds = %8
  %13 = tail call i32 @u_file_write_77(ptr noundef %2, i32 noundef %3, ptr noundef %0)
  %14 = load i32, ptr %5, align 4, !tbaa !12
  %15 = icmp sgt i32 %14, %3
  br i1 %15, label %.lr.ph, label %.loopexit

.lr.ph:                                           ; preds = %12
  %16 = getelementptr inbounds nuw i8, ptr %1, i64 12
  br label %17

17:                                               ; preds = %.lr.ph, %17
  %.035 = phi i32 [ 0, %.lr.ph ], [ %20, %17 ]
  %.02934 = phi i32 [ %13, %.lr.ph ], [ %19, %17 ]
  %18 = tail call i32 @u_file_write_77(ptr noundef nonnull %16, i32 noundef 1, ptr noundef %0)
  %19 = add nsw i32 %18, %.02934
  %20 = add nuw nsw i32 %.035, 1
  %21 = load i32, ptr %5, align 4, !tbaa !12
  %22 = sub nsw i32 %21, %3
  %23 = icmp slt i32 %20, %22
  br i1 %23, label %17, label %.loopexit, !llvm.loop !16

24:                                               ; preds = %.lr.ph38, %24
  %.137 = phi i32 [ 0, %.lr.ph38 ], [ %27, %24 ]
  %.13036 = phi i32 [ 0, %.lr.ph38 ], [ %26, %24 ]
  %25 = tail call i32 @u_file_write_77(ptr noundef nonnull %11, i32 noundef 1, ptr noundef %0)
  %26 = add nsw i32 %25, %.13036
  %27 = add nuw nsw i32 %.137, 1
  %28 = load i32, ptr %5, align 4, !tbaa !12
  %29 = sub nsw i32 %28, %3
  %30 = icmp slt i32 %27, %29
  br i1 %30, label %24, label %._crit_edge, !llvm.loop !18

._crit_edge:                                      ; preds = %24
  %31 = tail call i32 @u_file_write_77(ptr noundef %2, i32 noundef %3, ptr noundef %0)
  %32 = add nsw i32 %31, %26
  br label %.loopexit

33:                                               ; preds = %4
  %34 = tail call i32 @u_file_write_77(ptr noundef %2, i32 noundef %3, ptr noundef %0)
  br label %.loopexit

.loopexit:                                        ; preds = %17, %12, %._crit_edge, %33
  %.2 = phi i32 [ %32, %._crit_edge ], [ %34, %33 ], [ %13, %12 ], [ %19, %17 ]
  ret i32 %.2
}